target datalayout = "e-m:e-p270:32:32-p271:32:32-p272:64:64-i64:64-i128:128-f80:128-n8:16:32:64-S128"
target triple = "x86_64-pc-linux-gnu"

%struct.VirtualTransactionId = type { i32, i32 }

@max_standby_archive_delay = dso_local global i32 30000, align 4
@max_standby_streaming_delay = dso_local global i32 30000, align 4
@log_recovery_conflict_waits = dso_local global i8 0, align 1
@DeadlockTimeout = external global i32, align 4
@update_process_title = external global i8, align 1
@standbyWait_us = internal global i32 1000, align 4
@.str.14 = private unnamed_addr constant [8 x i8] c"waiting\00", align 1
@InterruptPending = external global i32, align 4
@my_wait_event_info = external global ptr, align 8

; Function Attrs: inlinehint nounwind uwtable
define internal void @pgstat_report_wait_end() #5 {
  %1 = load ptr, ptr @my_wait_event_info, align 8
  store volatile i32 0, ptr %1, align 4
  ret void
}

; Function Attrs: inlinehint nounwind uwtable
define internal void @pgstat_report_wait_start(i32 noundef %0) #5 {
  %2 = alloca i32, align 4
  store i32 %0, ptr %2, align 4
  %3 = load i32, ptr %2, align 4
  %4 = load ptr, ptr @my_wait_event_info, align 8
  store volatile i32 %3, ptr %4, align 4
  ret void
}

; Function Attrs: nounwind uwtable
define internal i64 @GetStandbyLimitTime() #0 {
  %1 = alloca i64, align 8
  %2 = alloca i64, align 8
  %3 = alloca i8, align 1
  %4 = alloca i32, align 4
  call void @llvm.lifetime.start.p0(i64 8, ptr %2) #8
  call void @llvm.lifetime.start.p0(i64 1, ptr %3) #8
  call void @GetXLogReceiptTime(ptr noundef %2, ptr noundef %3)
  %5 = load i8, ptr %3, align 1, !range !7, !noundef !8
  %6 = trunc i8 %5 to i1
  br i1 %6, label %7, label %17

7:                                                ; preds = %0
  %8 = load i32, ptr @max_standby_streaming_delay, align 4
  %9 = icmp slt i32 %8, 0
  br i1 %9, label %10, label %11

10:                                               ; preds = %7
  store i64 0, ptr %1, align 8
  store i32 1, ptr %4, align 4
  br label %27

11:                                               ; preds = %7
  %12 = load i64, ptr %2, align 8
  %13 = load i32, ptr @max_standby_streaming_delay, align 4
  %14 = sext i32 %13 to i64
  %15 = mul i64 %14, 1000
  %16 = add i64 %12, %15
  store i64 %16, ptr %1, align 8
  store i32 1, ptr %4, align 4
  br label %27

17:                                               ; preds = %0
  %18 = load i32, ptr @max_standby_archive_delay, align 4
  %19 = icmp slt i32 %18, 0
  br i1 %19, label %20, label %21

20:                                               ; preds = %17
  store i64 0, ptr %1, align 8
  store i32 1, ptr %4, align 4
  br label %27

21:                                               ; preds = %17
  %22 = load i64, ptr %2, align 8
  %23 = load i32, ptr @max_standby_archive_delay, align 4
  %24 = sext i32 %23 to i64
  %25 = mul i64 %24, 1000
  %26 = add i64 %22, %25
  store i64 %26, ptr %1, align 8
  store i32 1, ptr %4, align 4
  br label %27

27:                                               ; preds = %21, %20, %11, %10
  call void @llvm.lifetime.end.p0(i64 1, ptr %3) #8
  call void @llvm.lifetime.end.p0(i64 8, ptr %2) #8
  %28 = load i64, ptr %1, align 8
  ret i64 %28
}

; Function Attrs: nounwind uwtable
define internal zeroext i1 @WaitExceedsMaxStandbyDelay(i32 noundef %0) #0 {
  %2 = alloca i1, align 1
  %3 = alloca i32, align 4
  %4 = alloca i64, align 8
  %5 = alloca i32, align 4
  store i32 %0, ptr %3, align 4
  call void @llvm.lifetime.start.p0(i64 8, ptr %4) #8
  br label %6

6:                                                ; preds = %1
  %7 = load volatile i32, ptr @InterruptPending, align 4
  %8 = icmp ne i32 %7, 0
  %9 = zext i1 %8 to i32
  %10 = sext i32 %9 to i64
  %11 = call i64 @llvm.expect.i64(i64 %10, i64 0)
  %12 = icmp ne i64 %11, 0
  br i1 %12, label %13, label %14

13:                                               ; preds = %6
  call void @ProcessInterrupts()
  br label %14

14:                                               ; preds = %13, %6
  br label %15

15:                                               ; preds = %14
  br label %16

16:                                               ; preds = %15
  %17 = call i64 @GetStandbyLimitTime()
  store i64 %17, ptr %4, align 8
  %18 = load i64, ptr %4, align 8
  %19 = icmp ne i64 %18, 0
  br i1 %19, label %20, label %25

20:                                               ; preds = %16
  %21 = call i64 @GetCurrentTimestamp()
  %22 = load i64, ptr %4, align 8
  %23 = icmp sge i64 %21, %22
  br i1 %23, label %24, label %25

24:                                               ; preds = %20
  store i1 true, ptr %2, align 1
  store i32 1, ptr %5, align 4
  br label %35

25:                                               ; preds = %20, %16
  %26 = load i32, ptr %3, align 4
  call void @pgstat_report_wait_start(i32 noundef %26)
  %27 = load i32, ptr @standbyWait_us, align 4
  %28 = sext i32 %27 to i64
  call void @pg_usleep(i64 noundef %28)
  call void @pgstat_report_wait_end()
  %29 = load i32, ptr @standbyWait_us, align 4
  %30 = mul i32 %29, 2
  store i32 %30, ptr @standbyWait_us, align 4
  %31 = load i32, ptr @standbyWait_us, align 4
  %32 = icmp sgt i32 %31, 1000000
  br i1 %32, label %33, label %34

33:                                               ; preds = %25
  store i32 1000000, ptr @standbyWait_us, align 4
  br label %34

34:                                               ; preds = %33, %25
  store i1 false, ptr %2, align 1
  store i32 1, ptr %5, align 4
  br label %35

35:                                               ; preds = %34, %24
  call void @llvm.lifetime.end.p0(i64 8, ptr %4) #8
  %36 = load i1, ptr %2, align 1
  ret i1 %36
}

; Function Attrs: nounwind uwtable
define internal void @ResolveRecoveryConflictWithVirtualXIDs(ptr noundef %0, i32 noundef %1, i32 noundef %2, i1 noundef zeroext %3) #0 {
  %5 = alloca ptr, align 8
  %6 = alloca i32, align 4
  %7 = alloca i32, align 4
  %8 = alloca i8, align 1
  %9 = alloca i64, align 8
  %10 = alloca i8, align 1
  %11 = alloca i8, align 1
  %12 = alloca i32, align 4
  %13 = alloca i32, align 4
  %14 = alloca i64, align 8
  %15 = alloca i8, align 1
  %16 = alloca i8, align 1
  store ptr %0, ptr %5, align 8
  store i32 %1, ptr %6, align 4
  store i32 %2, ptr %7, align 4
  %17 = zext i1 %3 to i8
  store i8 %17, ptr %8, align 1
  call void @llvm.lifetime.start.p0(i64 8, ptr %9) #8
  store i64 0, ptr %9, align 8
  call void @llvm.lifetime.start.p0(i64 1, ptr %10) #8
  store i8 0, ptr %10, align 1
  call void @llvm.lifetime.start.p0(i64 1, ptr %11) #8
  store i8 0, ptr %11, align 1
  %18 = load ptr, ptr %5, align 8
  %19 = getelementptr inbounds nuw %struct.VirtualTransactionId, ptr %18, i32 0, i32 1
  %20 = load i32, ptr %19, align 4
  %21 = icmp ne i32 %20, 0
  br i1 %21, label %23, label %22

22:                                               ; preds = %4
  store i32 1, ptr %12, align 4
  br label %131

23:                                               ; preds = %4
  %24 = load i8, ptr %8, align 1, !range !7, !noundef !8
  %25 = trunc i8 %24 to i1
  br i1 %25, label %26, label %34

26:                                               ; preds = %23
  %27 = load i8, ptr @log_recovery_conflict_waits, align 1, !range !7, !noundef !8
  %28 = trunc i8 %27 to i1
  br i1 %28, label %32, label %29

29:                                               ; preds = %26
  %30 = load i8, ptr @update_process_title, align 1, !range !7, !noundef !8
  %31 = trunc i8 %30 to i1
  br i1 %31, label %32, label %34

32:                                               ; preds = %29, %26
  %33 = call i64 @GetCurrentTimestamp()
  store i64 %33, ptr %9, align 8
  br label %34

34:                                               ; preds = %32, %29, %23
  br label %35

35:                                               ; preds = %116, %34
  %36 = load ptr, ptr %5, align 8
  %37 = getelementptr inbounds nuw %struct.VirtualTransactionId, ptr %36, i32 0, i32 1
  %38 = load i32, ptr %37, align 4
  %39 = icmp ne i32 %38, 0
  br i1 %39, label %40, label %119

40:                                               ; preds = %35
  store i32 1000, ptr @standbyWait_us, align 4
  br label %41

41:                                               ; preds = %115, %40
  %42 = load ptr, ptr %5, align 8
  %43 = load i64, ptr %42, align 4
  %44 = call zeroext i1 @VirtualXactLock(i64 %43, i1 noundef zeroext false)
  %45 = xor i1 %44, true
  br i1 %45, label %46, label %116

46:                                               ; preds = %41
  %47 = load i32, ptr %7, align 4
  %48 = call zeroext i1 @WaitExceedsMaxStandbyDelay(i32 noundef %47)
  br i1 %48, label %49, label %58

49:                                               ; preds = %46
  call void @llvm.lifetime.start.p0(i64 4, ptr %13) #8
  %50 = load ptr, ptr %5, align 8
  %51 = load i32, ptr %6, align 4
  %52 = load i64, ptr %50, align 4
  %53 = call i32 @CancelVirtualTransaction(i64 %52, i32 noundef %51)
  store i32 %53, ptr %13, align 4
  %54 = load i32, ptr %13, align 4
  %55 = icmp ne i32 %54, 0
  br i1 %55, label %56, label %57

56:                                               ; preds = %49
  call void @pg_usleep(i64 noundef 5000)
  br label %57

57:                                               ; preds = %56, %49
  call void @llvm.lifetime.end.p0(i64 4, ptr %13) #8
  br label %58

58:                                               ; preds = %57, %46
  %59 = load i64, ptr %9, align 8
  %60 = icmp ne i64 %59, 0
  br i1 %60, label %61, label %115

61:                                               ; preds = %58
  %62 = load i8, ptr %11, align 1, !range !7, !noundef !8
  %63 = trunc i8 %62 to i1
  br i1 %63, label %64, label %67

64:                                               ; preds = %61
  %65 = load i8, ptr %10, align 1, !range !7, !noundef !8
  %66 = trunc i8 %65 to i1
  br i1 %66, label %115, label %67

67:                                               ; preds = %64, %61
  call void @llvm.lifetime.start.p0(i64 8, ptr %14) #8
  store i64 0, ptr %14, align 8
  call void @llvm.lifetime.start.p0(i64 1, ptr %15) #8
  call void @llvm.lifetime.start.p0(i64 1, ptr %16) #8
  %68 = load i8, ptr @log_recovery_conflict_waits, align 1, !range !7, !noundef !8
  %69 = trunc i8 %68 to i1
  br i1 %69, label %70, label %74

70:                                               ; preds = %67
  %71 = load i8, ptr %11, align 1, !range !7, !noundef !8
  %72 = trunc i8 %71 to i1
  %73 = xor i1 %72, true
  br label %74

74:                                               ; preds = %70, %67
  %75 = phi i1 [ false, %67 ], [ %73, %70 ]
  %76 = zext i1 %75 to i8
  store i8 %76, ptr %15, align 1
  %77 = load i8, ptr @update_process_title, align 1, !range !7, !noundef !8
  %78 = trunc i8 %77 to i1
  br i1 %78, label %79, label %83

79:                                               ; preds = %74
  %80 = load i8, ptr %10, align 1, !range !7, !noundef !8
  %81 = trunc i8 %80 to i1
  %82 = xor i1 %81, true
  br label %83

83:                                               ; preds = %79, %74
  %84 = phi i1 [ false, %74 ], [ %82, %79 ]
  %85 = zext i1 %84 to i8
  store i8 %85, ptr %16, align 1
  %86 = load i8, ptr %15, align 1, !range !7, !noundef !8
  %87 = trunc i8 %86 to i1
  br i1 %87, label %91, label %88

88:                                               ; preds = %83
  %89 = load i8, ptr %16, align 1, !range !7, !noundef !8
  %90 = trunc i8 %89 to i1
  br i1 %90, label %91, label %93

91:                                               ; preds = %88, %83
  %92 = call i64 @GetCurrentTimestamp()
  store i64 %92, ptr %14, align 8
  br label %93

93:                                               ; preds = %91, %88
  %94 = load i8, ptr %16, align 1, !range !7, !noundef !8
  %95 = trunc i8 %94 to i1
  br i1 %95, label %96, label %101

96:                                               ; preds = %93
  %97 = load i64, ptr %9, align 8
  %98 = load i64, ptr %14, align 8
  %99 = call zeroext i1 @TimestampDifferenceExceeds(i64 noundef %97, i64 noundef %98, i32 noundef 500)
  br i1 %99, label %100, label %101

100:                                              ; preds = %96
  call void @set_ps_display_suffix(ptr noundef @.str.14)
  store i8 1, ptr %10, align 1
  br label %101

101:                                              ; preds = %100, %96, %93
  %102 = load i8, ptr %15, align 1, !range !7, !noundef !8
  %103 = trunc i8 %102 to i1
  br i1 %103, label %104, label %114

104:                                              ; preds = %101
  %105 = load i64, ptr %9, align 8
  %106 = load i64, ptr %14, align 8
  %107 = load i32, ptr @DeadlockTimeout, align 4
  %108 = call zeroext i1 @TimestampDifferenceExceeds(i64 noundef %105, i64 noundef %106, i32 noundef %107)
  br i1 %108, label %109, label %114

109:                                              ; preds = %104
  %110 = load i32, ptr %6, align 4
  %111 = load i64, ptr %9, align 8
  %112 = load i64, ptr %14, align 8
  %113 = load ptr, ptr %5, align 8
  call void @LogRecoveryConflict(i32 noundef %110, i64 noundef %111, i64 noundef %112, ptr noundef %113, i1 noundef zeroext true)
  store i8 1, ptr %11, align 1
  br label %114

114:                                              ; preds = %109, %104, %101
  call void @llvm.lifetime.end.p0(i64 1, ptr %16) #8
  call void @llvm.lifetime.end.p0(i64 1, ptr %15) #8
  call void @llvm.lifetime.end.p0(i64 8, ptr %14) #8
  br label %115

115:                                              ; preds = %114, %64, %58
  br label %41, !llvm.loop !9

116:                                              ; preds = %41
  %117 = load ptr, ptr %5, align 8
  %118 = getelementptr inbounds nuw %struct.VirtualTransactionId, ptr %117, i32 1
  store ptr %118, ptr %5, align 8
  br label %35, !llvm.loop !10

119:                                              ; preds = %35
  %120 = load i8, ptr %11, align 1, !range !7, !noundef !8
  %121 = trunc i8 %120 to i1
  br i1 %121, label %122, label %126

122:                                              ; preds = %119
  %123 = load i32, ptr %6, align 4
  %124 = load i64, ptr %9, align 8
  %125 = call i64 @GetCurrentTimestamp()
  call void @LogRecoveryConflict(i32 noundef %123, i64 noundef %124, i64 noundef %125, ptr noundef null, i1 noundef zeroext false)
  br label %126

126:                                              ; preds = %122, %119
  %127 = load i8, ptr %10, align 1, !range !7, !noundef !8
  %128 = trunc i8 %127 to i1
  br i1 %128, label %129, label %130

129:                                              ; preds = %126
  call void @set_ps_display_remove_suffix()
  br label %130

130:                                              ; preds = %129, %126
  store i32 0, ptr %12, align 4
  br label %131

131:                                              ; preds = %130, %22
  call void @llvm.lifetime.end.p0(i64 1, ptr %11) #8
  call void @llvm.lifetime.end.p0(i64 1, ptr %10) #8
  call void @llvm.lifetime.end.p0(i64 8, ptr %9) #8
  %132 = load i32, ptr %12, align 4
  switch i32 %132, label %134 [
    i32 0, label %133
    i32 1, label %133
  ]

133:                                              ; preds = %131, %131
  ret void

134:                                              ; preds = %131
  unreachable
}