; Function Attrs: nounwind uwtable
define internal fastcc void @ResolveRecoveryConflictWithVirtualXIDs(ptr noundef captures(address_is_null) %0, i32 noundef range(i32 8, 11) %1, i32 noundef range(i32 50331648, 134217774) %2, i1 noundef zeroext %3) unnamed_addr #0 {
  %5 = alloca i64, align 8
  %6 = alloca i8, align 1
  %7 = getelementptr inbounds nuw i8, ptr %0, i64 4
  %8 = load i32, ptr %7, align 4
  %.not = icmp eq i32 %8, 0
  br i1 %.not, label %.thread62, label %9

9:                                                ; preds = %4
  br i1 %3, label %10, label %.lr.ph48

10:                                               ; preds = %9
  %11 = load i8, ptr @log_recovery_conflict_waits, align 1, !range !7, !noundef !8
  %12 = trunc nuw i8 %11 to i1
  br i1 %12, label %16, label %13

13:                                               ; preds = %10
  %14 = load i8, ptr @update_process_title, align 1, !range !7, !noundef !8
  %15 = trunc nuw i8 %14 to i1
  br i1 %15, label %16, label %.lr.ph48

16:                                               ; preds = %10, %13
  %17 = tail call i64 @GetCurrentTimestamp() #7
  %.pre = load i32, ptr %7, align 4
  %18 = icmp eq i32 %.pre, 0
  br i1 %18, label %.thread62, label %.lr.ph48

.lr.ph48:                                         ; preds = %9, %13, %16
  %.02956 = phi i64 [ %17, %16 ], [ 0, %13 ], [ 0, %9 ]
  %.not38 = icmp eq i64 %.02956, 0
  br label %19

19:                                               ; preds = %.lr.ph48, %._crit_edge
  %.046 = phi ptr [ %0, %.lr.ph48 ], [ %77, %._crit_edge ]
  %.03145 = phi i8 [ 0, %.lr.ph48 ], [ %.1.lcssa, %._crit_edge ]
  %.03244 = phi i8 [ 0, %.lr.ph48 ], [ %.133.lcssa, %._crit_edge ]
  store i32 1000, ptr @standbyWait_us, align 4
  %20 = load i64, ptr %.046, align 4
  %21 = call zeroext i1 @VirtualXactLock(i64 %20, i1 noundef zeroext false) #7
  br i1 %21, label %._crit_edge, label %.lr.ph

.lr.ph:                                           ; preds = %19, %74
  %.141 = phi i8 [ %.2, %74 ], [ %.03145, %19 ]
  %.13340 = phi i8 [ %.234, %74 ], [ %.03244, %19 ]
  %22 = load volatile i32, ptr @InterruptPending, align 4
  %.not.i = icmp eq i32 %22, 0
  br i1 %.not.i, label %24, label %23, !prof !9

23:                                               ; preds = %.lr.ph
  call void @ProcessInterrupts() #7
  br label %24

24:                                               ; preds = %23, %.lr.ph
  call void @llvm.lifetime.start.p0(i64 8, ptr nonnull %5) #7
  call void @llvm.lifetime.start.p0(i64 1, ptr nonnull %6) #7
  call void @GetXLogReceiptTime(ptr noundef nonnull %5, ptr noundef nonnull %6) #7
  %25 = load i8, ptr %6, align 1, !range !7, !noundef !8
  %26 = trunc nuw i8 %25 to i1
  br i1 %26, label %27, label %30

27:                                               ; preds = %24
  %28 = load i32, ptr @max_standby_streaming_delay, align 4
  %29 = icmp slt i32 %28, 0
  br i1 %29, label %GetStandbyLimitTime.exit.thread.i, label %GetStandbyLimitTime.exit.i

30:                                               ; preds = %24
  %31 = load i32, ptr @max_standby_archive_delay, align 4
  %32 = icmp slt i32 %31, 0
  br i1 %32, label %GetStandbyLimitTime.exit.thread.i, label %GetStandbyLimitTime.exit.i

GetStandbyLimitTime.exit.thread.i:                ; preds = %30, %27
  call void @llvm.lifetime.end.p0(i64 1, ptr nonnull %6) #7
  call void @llvm.lifetime.end.p0(i64 8, ptr nonnull %5) #7
  br label %WaitExceedsMaxStandbyDelay.exit

GetStandbyLimitTime.exit.i:                       ; preds = %30, %27
  %.sink10.i = phi i32 [ %28, %27 ], [ %31, %30 ]
  %33 = load i64, ptr %5, align 8
  %34 = zext nneg i32 %.sink10.i to i64
  %35 = mul nuw nsw i64 %34, 1000
  %36 = add i64 %35, %33
  call void @llvm.lifetime.end.p0(i64 1, ptr nonnull %6) #7
  call void @llvm.lifetime.end.p0(i64 8, ptr nonnull %5) #7
  %.not4.i = icmp eq i64 %36, 0
  br i1 %.not4.i, label %WaitExceedsMaxStandbyDelay.exit, label %37

37:                                               ; preds = %GetStandbyLimitTime.exit.i
  %38 = call i64 @GetCurrentTimestamp() #7
  %.not5.i = icmp slt i64 %38, %36
  br i1 %.not5.i, label %WaitExceedsMaxStandbyDelay.exit, label %45

WaitExceedsMaxStandbyDelay.exit:                  ; preds = %GetStandbyLimitTime.exit.thread.i, %GetStandbyLimitTime.exit.i, %37
  %39 = load ptr, ptr @my_wait_event_info, align 8
  store volatile i32 %2, ptr %39, align 4
  %40 = load i32, ptr @standbyWait_us, align 4
  %41 = sext i32 %40 to i64
  call void @pg_usleep(i64 noundef %41) #7
  %42 = load ptr, ptr @my_wait_event_info, align 8
  store volatile i32 0, ptr %42, align 4
  %43 = load i32, ptr @standbyWait_us, align 4
  %44 = shl i32 %43, 1
  %spec.store.select.i = call i32 @llvm.smin.i32(i32 %44, i32 1000000)
  store i32 %spec.store.select.i, ptr @standbyWait_us, align 4
  br label %49

45:                                               ; preds = %37
  %46 = load i64, ptr %.046, align 4
  %47 = call i32 @CancelVirtualTransaction(i64 %46, i32 noundef %1) #7
  %.not37 = icmp eq i32 %47, 0
  br i1 %.not37, label %49, label %48

48:                                               ; preds = %45
  call void @pg_usleep(i64 noundef 5000) #7
  br label %49

49:                                               ; preds = %WaitExceedsMaxStandbyDelay.exit, %45, %48
  br i1 %.not38, label %74, label %50

50:                                               ; preds = %49
  %51 = trunc nuw i8 %.13340 to i1
  %52 = trunc nuw i8 %.141 to i1
  br i1 %51, label %54, label %._crit_edge52

._crit_edge52:                                    ; preds = %50
  %53 = xor i1 %52, true
  br label %55

54:                                               ; preds = %50
  br i1 %52, label %74, label %55

55:                                               ; preds = %._crit_edge52, %54
  %.pre-phi = phi i1 [ %53, %._crit_edge52 ], [ true, %54 ]
  %56 = load i8, ptr @log_recovery_conflict_waits, align 1, !range !7, !noundef !8
  %57 = trunc nuw i8 %56 to i1
  %58 = xor i1 %51, true
  %59 = and i1 %58, %57
  %60 = load i8, ptr @update_process_title, align 1, !range !7, !noundef !8
  %61 = trunc nuw i8 %60 to i1
  %62 = select i1 %61, i1 %.pre-phi, i1 false
  %brmerge = select i1 %59, i1 true, i1 %62
  br i1 %brmerge, label %63, label %65

63:                                               ; preds = %55
  %64 = call i64 @GetCurrentTimestamp() #7
  br label %65

65:                                               ; preds = %55, %63
  %.030 = phi i64 [ %64, %63 ], [ 0, %55 ]
  br i1 %62, label %66, label %69

66:                                               ; preds = %65
  %67 = call zeroext i1 @TimestampDifferenceExceeds(i64 noundef %.02956, i64 noundef %.030, i32 noundef 500) #7
  br i1 %67, label %68, label %69

68:                                               ; preds = %66
  call void @set_ps_display_suffix(ptr noundef nonnull @.str.14) #7
  br label %69

69:                                               ; preds = %68, %66, %65
  %.3 = phi i8 [ 1, %68 ], [ 0, %66 ], [ %.141, %65 ]
  br i1 %59, label %70, label %74

70:                                               ; preds = %69
  %71 = load i32, ptr @DeadlockTimeout, align 4
  %72 = call zeroext i1 @TimestampDifferenceExceeds(i64 noundef %.02956, i64 noundef %.030, i32 noundef %71) #7
  br i1 %72, label %73, label %74

73:                                               ; preds = %70
  call void @LogRecoveryConflict(i32 noundef %1, i64 noundef %.02956, i64 noundef %.030, ptr noundef nonnull %.046, i1 noundef zeroext true)
  br label %74

74:                                               ; preds = %69, %70, %73, %54, %49
  %.234 = phi i8 [ 1, %54 ], [ %.13340, %49 ], [ 1, %73 ], [ 0, %70 ], [ %.13340, %69 ]
  %.2 = phi i8 [ 1, %54 ], [ %.141, %49 ], [ %.3, %73 ], [ %.3, %70 ], [ %.3, %69 ]
  %75 = load i64, ptr %.046, align 4
  %76 = call zeroext i1 @VirtualXactLock(i64 %75, i1 noundef zeroext false) #7
  br i1 %76, label %._crit_edge, label %.lr.ph, !llvm.loop !10

._crit_edge:                                      ; preds = %74, %19
  %.133.lcssa = phi i8 [ %.03244, %19 ], [ %.234, %74 ]
  %.1.lcssa = phi i8 [ %.03145, %19 ], [ %.2, %74 ]
  %77 = getelementptr inbounds nuw i8, ptr %.046, i64 8
  %78 = getelementptr inbounds nuw i8, ptr %.046, i64 12
  %79 = load i32, ptr %78, align 4
  %.not36 = icmp eq i32 %79, 0
  br i1 %.not36, label %._crit_edge49, label %19, !llvm.loop !11

._crit_edge49:                                    ; preds = %._crit_edge
  %80 = trunc nuw i8 %.133.lcssa to i1
  %81 = trunc nuw i8 %.1.lcssa to i1
  br i1 %80, label %82, label %84

82:                                               ; preds = %._crit_edge49
  %83 = call i64 @GetCurrentTimestamp() #7
  call void @LogRecoveryConflict(i32 noundef %1, i64 noundef %.02956, i64 noundef %83, ptr noundef null, i1 noundef zeroext false)
  br i1 %81, label %85, label %.thread62

84:                                               ; preds = %._crit_edge49
  br i1 %81, label %85, label %.thread62

85:                                               ; preds = %82, %84
  call void @set_ps_display_remove_suffix() #7
  br label %.thread62

.thread62:                                        ; preds = %16, %82, %84, %85, %4
  ret void
}